target datalayout = "e-m:e-p270:32:32-p271:32:32-p272:64:64-i64:64-i128:128-f80:128-n8:16:32:64-S128"
target triple = "x86_64-pc-linux-gnu"

%"struct.cv::utils::trace::details::Region::LocationStaticStorage" = type { ptr, ptr, ptr, i32, i32 }
%"class.std::__cxx11::basic_string" = type { %"struct.std::__cxx11::basic_string<char>::_Alloc_hider", i64, %union.anon }
%"struct.std::__cxx11::basic_string<char>::_Alloc_hider" = type { ptr }
%union.anon = type { i64, [8 x i8] }
%"class.cv::utils::trace::details::Region" = type <{ ptr, i32, [4 x i8] }>
%"class.std::allocator" = type { i8 }

@.str.1 = private unnamed_addr constant [117 x i8] c"generated/home/dtcxzyw/WorkSpace/Projects/compilers/llvm-opt-benchmark/bench/opencv/opencv/modules/core/src/norm.cpp\00", align 1
@_ZZN2cv4PSNRERKNS_11_InputArrayES2_dE26__cv_trace_location_fn1272 = internal constant %"struct.cv::utils::trace::details::Region::LocationStaticStorage" { ptr @_ZZN2cv4PSNRERKNS_11_InputArrayES2_dE32__cv_trace_location_extra_fn1272, ptr @.str.16, ptr @.str.1, i32 1272, i32 1 }, align 8
@.str.17 = private unnamed_addr constant [29 x i8] c"_src1.type() == _src2.type()\00", align 1
@__func__._ZN2cv4PSNRERKNS_11_InputArrayES2_d = private unnamed_addr constant [5 x i8] c"PSNR\00", align 1

; Function Attrs: mustprogress uwtable
define noundef double @_ZN2cv4PSNRERKNS_11_InputArrayES2_d(ptr noundef nonnull align 8 dereferenceable(24) %0, ptr noundef nonnull align 8 dereferenceable(24) %1, double noundef %2) #0 personality ptr @__gxx_personality_v0 {
  %4 = alloca ptr, align 8
  %5 = alloca ptr, align 8
  %6 = alloca double, align 8
  %7 = alloca %"class.cv::utils::trace::details::Region", align 8
  %8 = alloca ptr, align 8
  %9 = alloca i32, align 4
  %10 = alloca %"class.std::__cxx11::basic_string", align 8
  %11 = alloca %"class.std::allocator", align 1
  %12 = alloca double, align 8
  store ptr %0, ptr %4, align 8
  store ptr %1, ptr %5, align 8
  store double %2, ptr %6, align 8
  call void @_ZN2cv5utils5trace7details6RegionC1ERKNS3_21LocationStaticStorageE(ptr noundef nonnull align 8 dereferenceable(12) %7, ptr noundef nonnull align 8 dereferenceable(32) @_ZZN2cv4PSNRERKNS_11_InputArrayES2_dE26__cv_trace_location_fn1272)
  br label %13

13:                                               ; preds = %3
  %14 = load ptr, ptr %4, align 8
  %15 = invoke noundef i32 @_ZNK2cv11_InputArray4typeEi(ptr noundef nonnull align 8 dereferenceable(24) %14, i32 noundef -1)
          to label %16 unwind label %22

16:                                               ; preds = %13
  %17 = load ptr, ptr %5, align 8
  %18 = invoke noundef i32 @_ZNK2cv11_InputArray4typeEi(ptr noundef nonnull align 8 dereferenceable(24) %17, i32 noundef -1)
          to label %19 unwind label %22

19:                                               ; preds = %16
  %20 = icmp eq i32 %15, %18
  br i1 %20, label %21, label %26

21:                                               ; preds = %19
  br label %38

22:                                               ; preds = %49, %46, %44, %40, %16, %13
  %23 = landingpad { ptr, i32 }
          cleanup
  %24 = extractvalue { ptr, i32 } %23, 0
  store ptr %24, ptr %8, align 8
  %25 = extractvalue { ptr, i32 } %23, 1
  store i32 %25, ptr %9, align 4
  br label %64

26:                                               ; preds = %19
  call void @_ZNSaIcEC1Ev(ptr noundef nonnull align 1 dereferenceable(1) %11) #11
  invoke void @_ZNSt7__cxx1112basic_stringIcSt11char_traitsIcESaIcEEC1EPKcRKS3_(ptr noundef nonnull align 8 dereferenceable(32) %10, ptr noundef @.str.17, ptr noundef nonnull align 1 dereferenceable(1) %11)
          to label %27 unwind label %29

27:                                               ; preds = %26
  invoke void @_ZN2cv5errorEiRKNSt7__cxx1112basic_stringIcSt11char_traitsIcESaIcEEEPKcS9_i(i32 noundef -215, ptr noundef nonnull align 8 dereferenceable(32) %10, ptr noundef @__func__._ZN2cv4PSNRERKNS_11_InputArrayES2_d, ptr noundef @.str.1, i32 noundef 1275) #10
          to label %28 unwind label %33

28:                                               ; preds = %27
  unreachable

29:                                               ; preds = %26
  %30 = landingpad { ptr, i32 }
          cleanup
  %31 = extractvalue { ptr, i32 } %30, 0
  store ptr %31, ptr %8, align 8
  %32 = extractvalue { ptr, i32 } %30, 1
  store i32 %32, ptr %9, align 4
  br label %37

33:                                               ; preds = %27
  %34 = landingpad { ptr, i32 }
          cleanup
  %35 = extractvalue { ptr, i32 } %34, 0
  store ptr %35, ptr %8, align 8
  %36 = extractvalue { ptr, i32 } %34, 1
  store i32 %36, ptr %9, align 4
  call void @_ZNSt7__cxx1112basic_stringIcSt11char_traitsIcESaIcEED1Ev(ptr noundef nonnull align 8 dereferenceable(32) %10) #11
  br label %37

37:                                               ; preds = %33, %29
  call void @_ZNSaIcED1Ev(ptr noundef nonnull align 1 dereferenceable(1) %11) #11
  br label %64

38:                                               ; preds = %21
  br label %39

39:                                               ; preds = %38
  br label %40

40:                                               ; preds = %39
  %41 = load ptr, ptr %4, align 8
  %42 = load ptr, ptr %5, align 8
  %43 = invoke noundef nonnull align 8 dereferenceable(24) ptr @_ZN2cv7noArrayEv()
          to label %44 unwind label %22

44:                                               ; preds = %40
  %45 = invoke noundef double @_ZN2cv4normERKNS_11_InputArrayES2_iS2_(ptr noundef nonnull align 8 dereferenceable(24) %41, ptr noundef nonnull align 8 dereferenceable(24) %42, i32 noundef 5, ptr noundef nonnull align 8 dereferenceable(24) %43)
          to label %46 unwind label %22

46:                                               ; preds = %44
  %47 = load ptr, ptr %4, align 8
  %48 = invoke noundef i64 @_ZNK2cv11_InputArray5totalEi(ptr noundef nonnull align 8 dereferenceable(24) %47, i32 noundef -1)
          to label %49 unwind label %22

49:                                               ; preds = %46
  %50 = load ptr, ptr %4, align 8
  %51 = invoke noundef i32 @_ZNK2cv11_InputArray8channelsEi(ptr noundef nonnull align 8 dereferenceable(24) %50, i32 noundef -1)
          to label %52 unwind label %22

52:                                               ; preds = %49
  %53 = sext i32 %51 to i64
  %54 = mul i64 %48, %53
  %55 = uitofp i64 %54 to double
  %56 = fdiv double %45, %55
  %57 = call double @sqrt(double noundef %56) #11
  store double %57, ptr %12, align 8
  %58 = load double, ptr %6, align 8
  %59 = load double, ptr %12, align 8
  %60 = fadd double %59, 0x3CB0000000000000
  %61 = fdiv double %58, %60
  %62 = call double @log10(double noundef %61) #11
  %63 = fmul double 2.000000e+01, %62
  call void @_ZN2cv5utils5trace7details6RegionD2Ev(ptr noundef nonnull align 8 dereferenceable(12) %7) #11
  ret double %63

64:                                               ; preds = %37, %22
  call void @_ZN2cv5utils5trace7details6RegionD2Ev(ptr noundef nonnull align 8 dereferenceable(12) %7) #11
  br label %65

65:                                               ; preds = %64
  %66 = load ptr, ptr %8, align 8
  %67 = load i32, ptr %9, align 4
  %68 = insertvalue { ptr, i32 } poison, ptr %66, 0
  %69 = insertvalue { ptr, i32 } %68, i32 %67, 1
  resume { ptr, i32 } %69
}