; Function Attrs: mustprogress uwtable
define noundef double @_ZN2cv4PSNRERKNS_11_InputArrayES2_d(ptr noundef nonnull align 8 dereferenceable(24) %0, ptr noundef nonnull align 8 dereferenceable(24) %1, double noundef %2) local_unnamed_addr #0 personality ptr @__gxx_personality_v0 {
  %4 = alloca %"class.cv::utils::trace::details::Region", align 8
  %5 = alloca %"class.std::__cxx11::basic_string", align 8
  %6 = alloca %"class.std::allocator", align 1
  call void @_ZN2cv5utils5trace7details6RegionC1ERKNS3_21LocationStaticStorageE(ptr noundef nonnull align 8 dereferenceable(12) %4, ptr noundef nonnull align 8 dereferenceable(32) @_ZZN2cv4PSNRERKNS_11_InputArrayES2_dE26__cv_trace_location_fn1272)
  %7 = invoke noundef i32 @_ZNK2cv11_InputArray4typeEi(ptr noundef nonnull align 8 dereferenceable(24) %0, i32 noundef -1)
          to label %8 unwind label %12

8:                                                ; preds = %3
  %9 = invoke noundef i32 @_ZNK2cv11_InputArray4typeEi(ptr noundef nonnull align 8 dereferenceable(24) %1, i32 noundef -1)
          to label %10 unwind label %12

10:                                               ; preds = %8
  %11 = icmp eq i32 %7, %9
  br i1 %11, label %22, label %14

12:                                               ; preds = %28, %26, %24, %22, %8, %3
  %13 = landingpad { ptr, i32 }
          cleanup
  br label %46

14:                                               ; preds = %10
  call void @_ZNSaIcEC1Ev(ptr noundef nonnull align 1 dereferenceable(1) %6) #15
  invoke void @_ZNSt7__cxx1112basic_stringIcSt11char_traitsIcESaIcEEC1EPKcRKS3_(ptr noundef nonnull align 8 dereferenceable(32) %5, ptr noundef nonnull @.str.17, ptr noundef nonnull align 1 dereferenceable(1) %6)
          to label %15 unwind label %17

15:                                               ; preds = %14
  invoke void @_ZN2cv5errorEiRKNSt7__cxx1112basic_stringIcSt11char_traitsIcESaIcEEEPKcS9_i(i32 noundef -215, ptr noundef nonnull align 8 dereferenceable(32) %5, ptr noundef nonnull @__func__._ZN2cv4PSNRERKNS_11_InputArrayES2_d, ptr noundef nonnull @.str.1, i32 noundef 1275) #16
          to label %16 unwind label %19

16:                                               ; preds = %15
  unreachable

17:                                               ; preds = %14
  %18 = landingpad { ptr, i32 }
          cleanup
  br label %21

19:                                               ; preds = %15
  %20 = landingpad { ptr, i32 }
          cleanup
  call void @_ZNSt7__cxx1112basic_stringIcSt11char_traitsIcESaIcEED1Ev(ptr noundef nonnull align 8 dereferenceable(32) %5) #15
  br label %21

21:                                               ; preds = %19, %17
  %.pn = phi { ptr, i32 } [ %20, %19 ], [ %18, %17 ]
  call void @_ZNSaIcED1Ev(ptr noundef nonnull align 1 dereferenceable(1) %6) #15
  br label %46

22:                                               ; preds = %10
  %23 = invoke noundef nonnull align 8 dereferenceable(24) ptr @_ZN2cv7noArrayEv()
          to label %24 unwind label %12

24:                                               ; preds = %22
  %25 = invoke noundef double @_ZN2cv4normERKNS_11_InputArrayES2_iS2_(ptr noundef nonnull align 8 dereferenceable(24) %0, ptr noundef nonnull align 8 dereferenceable(24) %1, i32 noundef 5, ptr noundef nonnull align 8 dereferenceable(24) %23)
          to label %26 unwind label %12

26:                                               ; preds = %24
  %27 = invoke noundef i64 @_ZNK2cv11_InputArray5totalEi(ptr noundef nonnull align 8 dereferenceable(24) %0, i32 noundef -1)
          to label %28 unwind label %12

28:                                               ; preds = %26
  %29 = invoke noundef i32 @_ZNK2cv11_InputArray8channelsEi(ptr noundef nonnull align 8 dereferenceable(24) %0, i32 noundef -1)
          to label %30 unwind label %12

30:                                               ; preds = %28
  %31 = sext i32 %29 to i64
  %32 = mul i64 %27, %31
  %33 = uitofp i64 %32 to double
  %34 = fdiv double %25, %33
  %35 = call double @sqrt(double noundef %34) #15
  %36 = fadd double %35, 0x3CB0000000000000
  %37 = fdiv double %2, %36
  %38 = call double @log10(double noundef %37) #15
  %39 = getelementptr inbounds nuw i8, ptr %4, i64 8
  %40 = load i32, ptr %39, align 8
  %.not.i = icmp eq i32 %40, 0
  br i1 %.not.i, label %_ZN2cv5utils5trace7details6RegionD2Ev.exit, label %41

41:                                               ; preds = %30
  invoke void @_ZN2cv5utils5trace7details6Region7destroyEv(ptr noundef nonnull align 8 dereferenceable(12) %4)
          to label %_ZN2cv5utils5trace7details6RegionD2Ev.exit unwind label %42

42:                                               ; preds = %41
  %43 = landingpad { ptr, i32 }
          catch ptr null
  %44 = extractvalue { ptr, i32 } %43, 0
  call void @__clang_call_terminate(ptr %44) #19
  unreachable

_ZN2cv5utils5trace7details6RegionD2Ev.exit:       ; preds = %30, %41
  %45 = fmul double %38, 2.000000e+01
  ret double %45

46:                                               ; preds = %21, %12
  %.pn12 = phi { ptr, i32 } [ %13, %12 ], [ %.pn, %21 ]
  call void @_ZN2cv5utils5trace7details6RegionD2Ev(ptr noundef nonnull align 8 dereferenceable(12) %4) #15
  resume { ptr, i32 } %.pn12
}